; Function Attrs: mustprogress nounwind uwtable
define hidden void @_ZN6hermes2vm17JSObjectBuildMetaEPKNS0_6GCCellERNS0_8Metadata7BuilderE(ptr noundef %cell, ptr noundef nonnull align 8 dereferenceable(224) initializes((216, 224)) %mb) local_unnamed_addr #1 {
entry:
  %hasValue_.i.i = getelementptr inbounds nuw i8, ptr %mb, i64 212
  %0 = load i8, ptr %hasValue_.i.i, align 4
  %tobool.i.i = trunc i8 %0 to i1
  br i1 %tobool.i.i, label %_ZN6hermes2vm8Metadata7Builder23addJSObjectOverlapSlotsEj.exit, label %if.then.i

if.then.i:                                        ; preds = %entry
  %jsObjectOverlapSlots_.i = getelementptr inbounds nuw i8, ptr %mb, i64 208
  store i32 0, ptr %jsObjectOverlapSlots_.i, align 8
  store i8 1, ptr %hasValue_.i.i, align 4
  br label %_ZN6hermes2vm8Metadata7Builder23addJSObjectOverlapSlotsEj.exit

_ZN6hermes2vm8Metadata7Builder23addJSObjectOverlapSlotsEj.exit: ; preds = %entry, %if.then.i
  %vtp_.i = getelementptr inbounds nuw i8, ptr %mb, i64 216
  store ptr @_ZN6hermes2vm8JSObject2vtE, ptr %vtp_.i, align 8
  %parent_ = getelementptr inbounds nuw i8, ptr %cell, i64 8
  tail call void @_ZN6hermes2vm8Metadata7Builder8addFieldEPKcPKNS0_13GCPointerBaseE(ptr noundef nonnull align 8 dereferenceable(224) %mb, ptr noundef nonnull @.str, ptr noundef nonnull %parent_) #17
  %clazz_ = getelementptr inbounds nuw i8, ptr %cell, i64 12
  tail call void @_ZN6hermes2vm8Metadata7Builder8addFieldEPKcPKNS0_13GCPointerBaseE(ptr noundef nonnull align 8 dereferenceable(224) %mb, ptr noundef nonnull @.str.1, ptr noundef nonnull %clazz_) #17
  %propStorage_ = getelementptr inbounds nuw i8, ptr %cell, i64 16
  tail call void @_ZN6hermes2vm8Metadata7Builder8addFieldEPKcPKNS0_13GCPointerBaseE(ptr noundef nonnull align 8 dereferenceable(224) %mb, ptr noundef nonnull @.str.2, ptr noundef nonnull %propStorage_) #17
  %jsObjectOverlapSlots_.i13 = getelementptr inbounds nuw i8, ptr %mb, i64 208
  %1 = load i32, ptr %jsObjectOverlapSlots_.i13, align 8
  %cmp14 = icmp ult i32 %1, 5
  br i1 %cmp14, label %for.body.lr.ph, label %for.end

for.body.lr.ph:                                   ; preds = %_ZN6hermes2vm8Metadata7Builder23addJSObjectOverlapSlotsEj.exit
  %directProps_.i = getelementptr inbounds nuw i8, ptr %cell, i64 20
  %2 = zext nneg i32 %1 to i64
  br label %for.body

for.body:                                         ; preds = %for.body.lr.ph, %for.body
  %indvars.iv = phi i64 [ %2, %for.body.lr.ph ], [ %indvars.iv.next, %for.body ]
  %arrayidx = getelementptr inbounds nuw [5 x ptr], ptr @_ZZN6hermes2vm17JSObjectBuildMetaEPKNS0_6GCCellERNS0_8Metadata7BuilderEE14directPropName, i64 0, i64 %indvars.iv
  %3 = load ptr, ptr %arrayidx, align 8
  %add.ptr = getelementptr inbounds nuw %"class.hermes::vm::GCHermesValueBase", ptr %directProps_.i, i64 %indvars.iv
  tail call void @_ZN6hermes2vm8Metadata7Builder8addFieldEPKcPKNS0_17GCHermesValueBaseINS0_13HermesValue32EEE(ptr noundef nonnull align 8 dereferenceable(224) %mb, ptr noundef %3, ptr noundef nonnull %add.ptr) #17
  %indvars.iv.next = add nuw nsw i64 %indvars.iv, 1
  %4 = and i64 %indvars.iv.next, 4294967295
  %exitcond.not = icmp eq i64 %4, 5
  br i1 %exitcond.not, label %for.end, label %for.body, !llvm.loop !4

for.end:                                          ; preds = %for.body, %_ZN6hermes2vm8Metadata7Builder23addJSObjectOverlapSlotsEj.exit
  ret void
}